target datalayout = "e-m:e-p270:32:32-p271:32:32-p272:64:64-i64:64-i128:128-f80:128-n8:16:32:64-S128"
target triple = "x86_64-pc-linux-gnu"

%struct.git_hash_algo = type { ptr, i32, i64, i64, i64, ptr, ptr, ptr, ptr, ptr, ptr, ptr, ptr, ptr }
%struct.diff_filespec = type { %struct.object_id, ptr, ptr, ptr, i64, i32, i32, i16, i16, ptr }
%struct.object_id = type { [32 x i8], i32 }
%struct.repository = type { ptr, ptr, ptr, ptr, ptr, %struct.strmap, %struct.strmap, %struct.repo_path_cache, ptr, ptr, ptr, ptr, %struct.repo_settings, ptr, ptr, ptr, ptr, ptr, ptr, i32, i32, i32, ptr, ptr, i32, i32, i8 }
%struct.strmap = type { %struct.hashmap, ptr, i8 }
%struct.hashmap = type { ptr, ptr, ptr, i32, i32, i32, i32, i8 }
%struct.repo_path_cache = type { ptr, ptr, ptr, ptr, ptr, ptr, ptr }
%struct.repo_settings = type { i32, i32, i32, i32, i32, i32, i32, i32, i32, i32, i32, i32, ptr, i32, i32, i32, i32, i32, i32, i32, i64, i64, i64 }
%struct.stat = type { i64, i64, i64, i32, i32, i32, i32, i64, i64, i64, i64, %struct.timespec, %struct.timespec, %struct.timespec, [3 x i64] }
%struct.timespec = type { i64, i64 }

@the_repository = external global ptr, align 8
@hash_algos = external constant [3 x %struct.git_hash_algo], align 16
@.str.368 = private unnamed_addr constant [10 x i8] c"stat '%s'\00", align 1
@.str.369 = private unnamed_addr constant [15 x i8] c"cannot hash %s\00", align 1

; Function Attrs: inlinehint nounwind uwtable
define internal i32 @hash_algo_by_ptr(ptr noundef %0) #2 {
  %2 = alloca i32, align 4
  %3 = alloca ptr, align 8
  %4 = alloca i64, align 8
  %5 = alloca ptr, align 8
  %6 = alloca i32, align 4
  store ptr %0, ptr %3, align 8, !tbaa !412
  call void @llvm.lifetime.start.p0(i64 8, ptr %4) #10
  store i64 0, ptr %4, align 8, !tbaa !11
  br label %7

7:                                                ; preds = %23, %1
  %8 = load i64, ptr %4, align 8, !tbaa !11
  %9 = icmp ult i64 %8, 3
  br i1 %9, label %10, label %26

10:                                               ; preds = %7
  call void @llvm.lifetime.start.p0(i64 8, ptr %5) #10
  %11 = load i64, ptr %4, align 8, !tbaa !11
  %12 = getelementptr inbounds nuw [3 x %struct.git_hash_algo], ptr @hash_algos, i64 0, i64 %11
  store ptr %12, ptr %5, align 8, !tbaa !412
  %13 = load ptr, ptr %3, align 8, !tbaa !412
  %14 = load ptr, ptr %5, align 8, !tbaa !412
  %15 = icmp eq ptr %13, %14
  br i1 %15, label %16, label %19

16:                                               ; preds = %10
  %17 = load i64, ptr %4, align 8, !tbaa !11
  %18 = trunc i64 %17 to i32
  store i32 %18, ptr %2, align 4
  store i32 1, ptr %6, align 4
  br label %20

19:                                               ; preds = %10
  store i32 0, ptr %6, align 4
  br label %20

20:                                               ; preds = %19, %16
  call void @llvm.lifetime.end.p0(i64 8, ptr %5) #10
  %21 = load i32, ptr %6, align 4
  switch i32 %21, label %27 [
    i32 0, label %22
  ]

22:                                               ; preds = %20
  br label %23

23:                                               ; preds = %22
  %24 = load i64, ptr %4, align 8, !tbaa !11
  %25 = add i64 %24, 1
  store i64 %25, ptr %4, align 8, !tbaa !11
  br label %7, !llvm.loop !422

26:                                               ; preds = %7
  store i32 0, ptr %2, align 4
  store i32 1, ptr %6, align 4
  br label %27

27:                                               ; preds = %26, %20
  call void @llvm.lifetime.end.p0(i64 8, ptr %4) #10
  %28 = load i32, ptr %2, align 4
  ret i32 %28
}

; Function Attrs: inlinehint nounwind uwtable
define internal void @oidclr(ptr noundef %0, ptr noundef %1) #2 {
  %3 = alloca ptr, align 8
  %4 = alloca ptr, align 8
  store ptr %0, ptr %3, align 8, !tbaa !141
  store ptr %1, ptr %4, align 8, !tbaa !412
  %5 = load ptr, ptr %3, align 8, !tbaa !141
  %6 = getelementptr inbounds nuw %struct.object_id, ptr %5, i32 0, i32 0
  %7 = getelementptr inbounds [32 x i8], ptr %6, i64 0, i64 0
  call void @llvm.memset.p0.i64(ptr align 4 %7, i8 0, i64 32, i1 false)
  %8 = load ptr, ptr %4, align 8, !tbaa !412
  %9 = call i32 @hash_algo_by_ptr(ptr noundef %8)
  %10 = load ptr, ptr %3, align 8, !tbaa !141
  %11 = getelementptr inbounds nuw %struct.object_id, ptr %10, i32 0, i32 1
  store i32 %9, ptr %11, align 4, !tbaa !143
  ret void
}

; Function Attrs: nounwind uwtable
define internal void @diff_fill_oid_info(ptr noundef %0, ptr noundef %1) #0 {
  %3 = alloca ptr, align 8
  %4 = alloca ptr, align 8
  %5 = alloca %struct.stat, align 8
  %6 = alloca i32, align 4
  store ptr %0, ptr %3, align 8, !tbaa !88
  store ptr %1, ptr %4, align 8, !tbaa !121
  %7 = load ptr, ptr %3, align 8, !tbaa !88
  %8 = getelementptr inbounds nuw %struct.diff_filespec, ptr %7, i32 0, i32 7
  %9 = load i16, ptr %8, align 8, !tbaa !119
  %10 = zext i16 %9 to i32
  %11 = icmp ne i32 %10, 0
  br i1 %11, label %12, label %61

12:                                               ; preds = %2
  %13 = load ptr, ptr %3, align 8, !tbaa !88
  %14 = getelementptr inbounds nuw %struct.diff_filespec, ptr %13, i32 0, i32 8
  %15 = load i16, ptr %14, align 2
  %16 = and i16 %15, 1
  %17 = zext i16 %16 to i32
  %18 = icmp ne i32 %17, 0
  br i1 %18, label %60, label %19

19:                                               ; preds = %12
  call void @llvm.lifetime.start.p0(i64 144, ptr %5) #10
  %20 = load ptr, ptr %3, align 8, !tbaa !88
  %21 = getelementptr inbounds nuw %struct.diff_filespec, ptr %20, i32 0, i32 8
  %22 = load i16, ptr %21, align 2
  %23 = lshr i16 %22, 5
  %24 = and i16 %23, 1
  %25 = zext i16 %24 to i32
  %26 = icmp ne i32 %25, 0
  br i1 %26, label %27, label %33

27:                                               ; preds = %19
  %28 = load ptr, ptr %3, align 8, !tbaa !88
  %29 = getelementptr inbounds nuw %struct.diff_filespec, ptr %28, i32 0, i32 0
  %30 = load ptr, ptr @the_repository, align 8, !tbaa !87
  %31 = getelementptr inbounds nuw %struct.repository, ptr %30, i32 0, i32 17
  %32 = load ptr, ptr %31, align 8, !tbaa !198
  call void @oidclr(ptr noundef %29, ptr noundef %32)
  store i32 1, ptr %6, align 4
  br label %57

33:                                               ; preds = %19
  %34 = load ptr, ptr %3, align 8, !tbaa !88
  %35 = getelementptr inbounds nuw %struct.diff_filespec, ptr %34, i32 0, i32 1
  %36 = load ptr, ptr %35, align 8, !tbaa !122
  %37 = call i32 @lstat64(ptr noundef %36, ptr noundef %5) #10
  %38 = icmp slt i32 %37, 0
  br i1 %38, label %39, label %43

39:                                               ; preds = %33
  %40 = load ptr, ptr %3, align 8, !tbaa !88
  %41 = getelementptr inbounds nuw %struct.diff_filespec, ptr %40, i32 0, i32 1
  %42 = load ptr, ptr %41, align 8, !tbaa !122
  call void (ptr, ...) @die_errno(ptr noundef @.str.368, ptr noundef %42) #12
  unreachable

43:                                               ; preds = %33
  %44 = load ptr, ptr %4, align 8, !tbaa !121
  %45 = load ptr, ptr %3, align 8, !tbaa !88
  %46 = getelementptr inbounds nuw %struct.diff_filespec, ptr %45, i32 0, i32 0
  %47 = load ptr, ptr %3, align 8, !tbaa !88
  %48 = getelementptr inbounds nuw %struct.diff_filespec, ptr %47, i32 0, i32 1
  %49 = load ptr, ptr %48, align 8, !tbaa !122
  %50 = call i32 @index_path(ptr noundef %44, ptr noundef %46, ptr noundef %49, ptr noundef %5, i32 noundef 0)
  %51 = icmp ne i32 %50, 0
  br i1 %51, label %52, label %56

52:                                               ; preds = %43
  %53 = load ptr, ptr %3, align 8, !tbaa !88
  %54 = getelementptr inbounds nuw %struct.diff_filespec, ptr %53, i32 0, i32 1
  %55 = load ptr, ptr %54, align 8, !tbaa !122
  call void (ptr, ...) @die(ptr noundef @.str.369, ptr noundef %55) #12
  unreachable

56:                                               ; preds = %43
  store i32 0, ptr %6, align 4
  br label %57

57:                                               ; preds = %56, %27
  call void @llvm.lifetime.end.p0(i64 144, ptr %5) #10
  %58 = load i32, ptr %6, align 4
  switch i32 %58, label %68 [
    i32 0, label %59
    i32 1, label %67
  ]

59:                                               ; preds = %57
  br label %60

60:                                               ; preds = %59, %12
  br label %67

61:                                               ; preds = %2
  %62 = load ptr, ptr %3, align 8, !tbaa !88
  %63 = getelementptr inbounds nuw %struct.diff_filespec, ptr %62, i32 0, i32 0
  %64 = load ptr, ptr @the_repository, align 8, !tbaa !87
  %65 = getelementptr inbounds nuw %struct.repository, ptr %64, i32 0, i32 17
  %66 = load ptr, ptr %65, align 8, !tbaa !198
  call void @oidclr(ptr noundef %63, ptr noundef %66)
  br label %67

67:                                               ; preds = %57, %61, %60
  ret void

68:                                               ; preds = %57
  unreachable
}