; Function Attrs: nounwind uwtable
define internal fastcc void @diff_fill_oid_info(ptr noundef %0, ptr noundef %1) unnamed_addr #0 {
  %3 = alloca %struct.stat, align 8
  %4 = getelementptr inbounds nuw i8, ptr %0, i64 80
  %5 = load i16, ptr %4, align 8, !tbaa !100
  %.not = icmp eq i16 %5, 0
  br i1 %.not, label %34, label %6

6:                                                ; preds = %2
  %7 = getelementptr inbounds nuw i8, ptr %0, i64 82
  %8 = load i16, ptr %7, align 2
  %9 = and i16 %8, 1
  %.not11 = icmp eq i16 %9, 0
  br i1 %.not11, label %10, label %44

10:                                               ; preds = %6
  call void @llvm.lifetime.start.p0(i64 144, ptr nonnull %3) #32
  %11 = and i16 %8, 32
  %.not12 = icmp eq i16 %11, 0
  br i1 %.not12, label %22, label %12

12:                                               ; preds = %10
  %13 = load ptr, ptr @the_repository, align 8, !tbaa !190
  %14 = getelementptr inbounds nuw i8, ptr %13, i64 400
  %15 = load ptr, ptr %14, align 8, !tbaa !191
  tail call void @llvm.memset.p0.i64(ptr noundef nonnull align 4 dereferenceable(32) %0, i8 0, i64 32, i1 false)
  br label %16

16:                                               ; preds = %18, %12
  %.0811.i.i = phi i64 [ 0, %12 ], [ %19, %18 ]
  %17 = getelementptr inbounds nuw [3 x %struct.git_hash_algo], ptr @hash_algos, i64 0, i64 %.0811.i.i
  %.not.i.i = icmp eq ptr %15, %17
  br i1 %.not.i.i, label %.split.loop.exit9.i.i, label %18

18:                                               ; preds = %16
  %19 = add nuw nsw i64 %.0811.i.i, 1
  %exitcond.not.i.i = icmp eq i64 %19, 3
  br i1 %exitcond.not.i.i, label %oidclr.exit, label %16, !llvm.loop !269

.split.loop.exit9.i.i:                            ; preds = %16
  %20 = trunc nuw nsw i64 %.0811.i.i to i32
  br label %oidclr.exit

oidclr.exit:                                      ; preds = %18, %.split.loop.exit9.i.i
  %.2.i.i = phi i32 [ %20, %.split.loop.exit9.i.i ], [ 0, %18 ]
  %21 = getelementptr inbounds nuw i8, ptr %0, i64 32
  store i32 %.2.i.i, ptr %21, align 4, !tbaa !126
  br label %33

22:                                               ; preds = %10
  %23 = getelementptr inbounds nuw i8, ptr %0, i64 40
  %24 = load ptr, ptr %23, align 8, !tbaa !101
  %25 = call i32 @lstat64(ptr noundef %24, ptr noundef nonnull %3) #32
  %26 = icmp slt i32 %25, 0
  %27 = load ptr, ptr %23, align 8, !tbaa !101
  br i1 %26, label %28, label %29

28:                                               ; preds = %22
  tail call void (ptr, ...) @die_errno(ptr noundef nonnull @.str.368, ptr noundef %27) #34
  unreachable

29:                                               ; preds = %22
  %30 = call i32 @index_path(ptr noundef %1, ptr noundef nonnull %0, ptr noundef %27, ptr noundef nonnull %3, i32 noundef 0) #32
  %.not13 = icmp eq i32 %30, 0
  br i1 %.not13, label %33, label %31

31:                                               ; preds = %29
  %32 = load ptr, ptr %23, align 8, !tbaa !101
  call void (ptr, ...) @die(ptr noundef nonnull @.str.369, ptr noundef %32) #34
  unreachable

33:                                               ; preds = %29, %oidclr.exit
  call void @llvm.lifetime.end.p0(i64 144, ptr nonnull %3) #32
  br label %44

34:                                               ; preds = %2
  %35 = load ptr, ptr @the_repository, align 8, !tbaa !190
  %36 = getelementptr inbounds nuw i8, ptr %35, i64 400
  %37 = load ptr, ptr %36, align 8, !tbaa !191
  tail call void @llvm.memset.p0.i64(ptr noundef nonnull align 4 dereferenceable(32) %0, i8 0, i64 32, i1 false)
  br label %38

38:                                               ; preds = %40, %34
  %.0811.i.i14 = phi i64 [ 0, %34 ], [ %41, %40 ]
  %39 = getelementptr inbounds nuw [3 x %struct.git_hash_algo], ptr @hash_algos, i64 0, i64 %.0811.i.i14
  %.not.i.i15 = icmp eq ptr %37, %39
  br i1 %.not.i.i15, label %.split.loop.exit9.i.i18, label %40

40:                                               ; preds = %38
  %41 = add nuw nsw i64 %.0811.i.i14, 1
  %exitcond.not.i.i16 = icmp eq i64 %41, 3
  br i1 %exitcond.not.i.i16, label %oidclr.exit19, label %38, !llvm.loop !269

.split.loop.exit9.i.i18:                          ; preds = %38
  %42 = trunc nuw nsw i64 %.0811.i.i14 to i32
  br label %oidclr.exit19

oidclr.exit19:                                    ; preds = %40, %.split.loop.exit9.i.i18
  %.2.i.i17 = phi i32 [ %42, %.split.loop.exit9.i.i18 ], [ 0, %40 ]
  %43 = getelementptr inbounds nuw i8, ptr %0, i64 32
  store i32 %.2.i.i17, ptr %43, align 4, !tbaa !126
  br label %44

44:                                               ; preds = %33, %6, %oidclr.exit19
  ret void
}